target datalayout = "e-m:e-p270:32:32-p271:32:32-p272:64:64-i64:64-i128:128-f80:128-n8:16:32:64-S128"
target triple = "x86_64-pc-linux-gnu"

@.str.1 = private unnamed_addr constant [13 x i8] c"arrayutils.c\00", align 1
@.str.2 = private unnamed_addr constant [35 x i8] c"array lower bound is too large: %d\00", align 1
@__func__.ArrayCheckBoundsSafe = private unnamed_addr constant [21 x i8] c"ArrayCheckBoundsSafe\00", align 1

; Function Attrs: inlinehint nounwind uwtable
define internal zeroext i1 @pg_add_s32_overflow(i32 noundef %0, i32 noundef %1, ptr noundef %2) #3 {
  %4 = alloca i32, align 4
  %5 = alloca i32, align 4
  %6 = alloca ptr, align 8
  store i32 %0, ptr %4, align 4
  store i32 %1, ptr %5, align 4
  store ptr %2, ptr %6, align 8
  %7 = load i32, ptr %4, align 4
  %8 = load i32, ptr %5, align 4
  %9 = load ptr, ptr %6, align 8
  %10 = call { i32, i1 } @llvm.sadd.with.overflow.i32(i32 %7, i32 %8)
  %11 = extractvalue { i32, i1 } %10, 1
  %12 = extractvalue { i32, i1 } %10, 0
  store i32 %12, ptr %9, align 4
  ret i1 %11
}

; Function Attrs: nounwind uwtable
define dso_local zeroext i1 @ArrayCheckBoundsSafe(i32 noundef %0, ptr noundef %1, ptr noundef %2, ptr noundef %3) #0 {
  %5 = alloca i1, align 1
  %6 = alloca i32, align 4
  %7 = alloca ptr, align 8
  %8 = alloca ptr, align 8
  %9 = alloca ptr, align 8
  %10 = alloca i32, align 4
  %11 = alloca i32, align 4
  %12 = alloca ptr, align 8
  %13 = alloca i32, align 4
  store i32 %0, ptr %6, align 4
  store ptr %1, ptr %7, align 8
  store ptr %2, ptr %8, align 8
  store ptr %3, ptr %9, align 8
  call void @llvm.lifetime.start.p0(i64 4, ptr %10) #6
  store i32 0, ptr %10, align 4
  br label %14

14:                                               ; preds = %54, %4
  %15 = load i32, ptr %10, align 4
  %16 = load i32, ptr %6, align 4
  %17 = icmp slt i32 %15, %16
  br i1 %17, label %18, label %57

18:                                               ; preds = %14
  call void @llvm.lifetime.start.p0(i64 4, ptr %11) #6
  %19 = load ptr, ptr %7, align 8
  %20 = load i32, ptr %10, align 4
  %21 = sext i32 %20 to i64
  %22 = getelementptr inbounds i32, ptr %19, i64 %21
  %23 = load i32, ptr %22, align 4
  %24 = load ptr, ptr %8, align 8
  %25 = load i32, ptr %10, align 4
  %26 = sext i32 %25 to i64
  %27 = getelementptr inbounds i32, ptr %24, i64 %26
  %28 = load i32, ptr %27, align 4
  %29 = call zeroext i1 @pg_add_s32_overflow(i32 noundef %23, i32 noundef %28, ptr noundef %11)
  br i1 %29, label %30, label %50

30:                                               ; preds = %18
  br label %31

31:                                               ; preds = %30
  br label %32

32:                                               ; preds = %31
  call void @llvm.lifetime.start.p0(i64 8, ptr %12) #6
  %33 = load ptr, ptr %9, align 8
  store ptr %33, ptr %12, align 8
  %34 = load ptr, ptr %12, align 8
  %35 = call zeroext i1 @errsave_start(ptr noundef %34, ptr noundef null)
  br i1 %35, label %36, label %45

36:                                               ; preds = %32
  %37 = call i32 @errcode(i32 noundef 261)
  %38 = load ptr, ptr %8, align 8
  %39 = load i32, ptr %10, align 4
  %40 = sext i32 %39 to i64
  %41 = getelementptr inbounds i32, ptr %38, i64 %40
  %42 = load i32, ptr %41, align 4
  %43 = call i32 (ptr, ...) @errmsg(ptr noundef @.str.2, i32 noundef %42)
  %44 = load ptr, ptr %12, align 8
  call void @errsave_finish(ptr noundef %44, ptr noundef @.str.1, i32 noundef 141, ptr noundef @__func__.ArrayCheckBoundsSafe)
  br label %45

45:                                               ; preds = %36, %32
  call void @llvm.lifetime.end.p0(i64 8, ptr %12) #6
  br label %46

46:                                               ; preds = %45
  br label %47

47:                                               ; preds = %46
  store i1 false, ptr %5, align 1
  store i32 1, ptr %13, align 4
  br label %51

48:                                               ; No predecessors!
  br label %49

49:                                               ; preds = %48
  br label %50

50:                                               ; preds = %49, %18
  store i32 0, ptr %13, align 4
  br label %51

51:                                               ; preds = %50, %47
  call void @llvm.lifetime.end.p0(i64 4, ptr %11) #6
  %52 = load i32, ptr %13, align 4
  switch i32 %52, label %58 [
    i32 0, label %53
  ]

53:                                               ; preds = %51
  br label %54

54:                                               ; preds = %53
  %55 = load i32, ptr %10, align 4
  %56 = add i32 %55, 1
  store i32 %56, ptr %10, align 4
  br label %14, !llvm.loop !7

57:                                               ; preds = %14
  store i1 true, ptr %5, align 1
  store i32 1, ptr %13, align 4
  br label %58

58:                                               ; preds = %57, %51
  call void @llvm.lifetime.end.p0(i64 4, ptr %10) #6
  %59 = load i1, ptr %5, align 1
  ret i1 %59
}