; Function Attrs: nounwind uwtable
define dso_local noundef zeroext i1 @ArrayCheckBoundsSafe(i32 noundef %0, ptr noundef readonly captures(none) %1, ptr noundef readonly captures(none) %2, ptr noundef %3) local_unnamed_addr #2 {
  %5 = icmp slt i32 %0, 1
  br i1 %5, label %.loopexit, label %.critedge.preheader

.critedge.preheader:                              ; preds = %4
  %wide.trip.count = zext nneg i32 %0 to i64
  br label %.critedge

6:                                                ; preds = %.critedge
  %indvars.iv.next = add nuw nsw i64 %indvars.iv, 1
  %exitcond.not = icmp eq i64 %indvars.iv.next, %wide.trip.count
  br i1 %exitcond.not, label %.loopexit, label %.critedge, !llvm.loop !7

.critedge:                                        ; preds = %.critedge.preheader, %6
  %indvars.iv = phi i64 [ 0, %.critedge.preheader ], [ %indvars.iv.next, %6 ]
  %7 = getelementptr inbounds nuw i32, ptr %1, i64 %indvars.iv
  %8 = load i32, ptr %7, align 4
  %9 = getelementptr inbounds nuw i32, ptr %2, i64 %indvars.iv
  %10 = load i32, ptr %9, align 4
  %11 = tail call { i32, i1 } @llvm.sadd.with.overflow.i32(i32 %8, i32 %10)
  %12 = extractvalue { i32, i1 } %11, 1
  br i1 %12, label %13, label %6

13:                                               ; preds = %.critedge
  %14 = tail call zeroext i1 @errsave_start(ptr noundef %3, ptr noundef null) #8
  br i1 %14, label %15, label %.loopexit

15:                                               ; preds = %13
  %16 = getelementptr inbounds nuw i32, ptr %2, i64 %indvars.iv
  %17 = tail call i32 @errcode(i32 noundef 261) #8
  %18 = load i32, ptr %16, align 4
  %19 = tail call i32 (ptr, ...) @errmsg(ptr noundef nonnull @.str.2, i32 noundef %18) #8
  tail call void @errsave_finish(ptr noundef %3, ptr noundef nonnull @.str.1, i32 noundef 141, ptr noundef nonnull @__func__.ArrayCheckBoundsSafe) #8
  br label %.loopexit

.loopexit:                                        ; preds = %6, %4, %15, %13
  %20 = phi i1 [ false, %15 ], [ false, %13 ], [ true, %4 ], [ true, %6 ]
  ret i1 %20
}